target datalayout = "e-m:e-p270:32:32-p271:32:32-p272:64:64-i64:64-i128:128-f80:128-n8:16:32:64-S128"
target triple = "x86_64-pc-linux-gnu"

%struct.StringInfoData = type { ptr, i32, i32, i32 }
%struct.StripnullState = type { ptr, ptr, i8 }

; Function Attrs: nounwind uwtable
define internal i32 @sn_array_element_start(ptr noundef %0, i1 noundef zeroext %1) #0 {
  %3 = alloca ptr, align 8
  %4 = alloca i8, align 1
  %5 = alloca ptr, align 8
  store ptr %0, ptr %3, align 8
  %6 = zext i1 %1 to i8
  store i8 %6, ptr %4, align 1
  call void @llvm.lifetime.start.p0(i64 8, ptr %5) #10
  %7 = load ptr, ptr %3, align 8
  store ptr %7, ptr %5, align 8
  %8 = load ptr, ptr %5, align 8
  %9 = getelementptr inbounds nuw %struct.StripnullState, ptr %8, i32 0, i32 1
  %10 = load ptr, ptr %9, align 8
  %11 = getelementptr inbounds nuw %struct.StringInfoData, ptr %10, i32 0, i32 0
  %12 = load ptr, ptr %11, align 8
  %13 = load ptr, ptr %5, align 8
  %14 = getelementptr inbounds nuw %struct.StripnullState, ptr %13, i32 0, i32 1
  %15 = load ptr, ptr %14, align 8
  %16 = getelementptr inbounds nuw %struct.StringInfoData, ptr %15, i32 0, i32 1
  %17 = load i32, ptr %16, align 8
  %18 = sub i32 %17, 1
  %19 = sext i32 %18 to i64
  %20 = getelementptr inbounds i8, ptr %12, i64 %19
  %21 = load i8, ptr %20, align 1
  %22 = sext i8 %21 to i32
  %23 = icmp ne i32 %22, 91
  br i1 %23, label %24, label %68

24:                                               ; preds = %2
  %25 = load ptr, ptr %5, align 8
  %26 = getelementptr inbounds nuw %struct.StripnullState, ptr %25, i32 0, i32 1
  %27 = load ptr, ptr %26, align 8
  %28 = getelementptr inbounds nuw %struct.StringInfoData, ptr %27, i32 0, i32 1
  %29 = load i32, ptr %28, align 8
  %30 = add i32 %29, 1
  %31 = load ptr, ptr %5, align 8
  %32 = getelementptr inbounds nuw %struct.StripnullState, ptr %31, i32 0, i32 1
  %33 = load ptr, ptr %32, align 8
  %34 = getelementptr inbounds nuw %struct.StringInfoData, ptr %33, i32 0, i32 2
  %35 = load i32, ptr %34, align 4
  %36 = icmp sge i32 %30, %35
  br i1 %36, label %37, label %41

37:                                               ; preds = %24
  %38 = load ptr, ptr %5, align 8
  %39 = getelementptr inbounds nuw %struct.StripnullState, ptr %38, i32 0, i32 1
  %40 = load ptr, ptr %39, align 8
  call void @appendStringInfoChar(ptr noundef %40, i8 noundef signext 44)
  br label %67

41:                                               ; preds = %24
  %42 = load ptr, ptr %5, align 8
  %43 = getelementptr inbounds nuw %struct.StripnullState, ptr %42, i32 0, i32 1
  %44 = load ptr, ptr %43, align 8
  %45 = getelementptr inbounds nuw %struct.StringInfoData, ptr %44, i32 0, i32 0
  %46 = load ptr, ptr %45, align 8
  %47 = load ptr, ptr %5, align 8
  %48 = getelementptr inbounds nuw %struct.StripnullState, ptr %47, i32 0, i32 1
  %49 = load ptr, ptr %48, align 8
  %50 = getelementptr inbounds nuw %struct.StringInfoData, ptr %49, i32 0, i32 1
  %51 = load i32, ptr %50, align 8
  %52 = sext i32 %51 to i64
  %53 = getelementptr inbounds i8, ptr %46, i64 %52
  store i8 44, ptr %53, align 1
  %54 = load ptr, ptr %5, align 8
  %55 = getelementptr inbounds nuw %struct.StripnullState, ptr %54, i32 0, i32 1
  %56 = load ptr, ptr %55, align 8
  %57 = getelementptr inbounds nuw %struct.StringInfoData, ptr %56, i32 0, i32 0
  %58 = load ptr, ptr %57, align 8
  %59 = load ptr, ptr %5, align 8
  %60 = getelementptr inbounds nuw %struct.StripnullState, ptr %59, i32 0, i32 1
  %61 = load ptr, ptr %60, align 8
  %62 = getelementptr inbounds nuw %struct.StringInfoData, ptr %61, i32 0, i32 1
  %63 = load i32, ptr %62, align 8
  %64 = add i32 %63, 1
  store i32 %64, ptr %62, align 8
  %65 = sext i32 %64 to i64
  %66 = getelementptr inbounds i8, ptr %58, i64 %65
  store i8 0, ptr %66, align 1
  br label %67

67:                                               ; preds = %41, %37
  br label %68

68:                                               ; preds = %67, %2
  call void @llvm.lifetime.end.p0(i64 8, ptr %5) #10
  ret i32 0
}