; Function Attrs: nounwind uwtable
define internal noundef i32 @sn_array_element_start(ptr noundef readonly captures(none) %0, i1 zeroext %1) #0 {
  %3 = getelementptr inbounds nuw i8, ptr %0, i64 8
  %4 = load ptr, ptr %3, align 8
  %5 = load ptr, ptr %4, align 8
  %6 = getelementptr inbounds nuw i8, ptr %4, i64 8
  %7 = load i32, ptr %6, align 8
  %8 = add i32 %7, -1
  %9 = sext i32 %8 to i64
  %10 = getelementptr inbounds i8, ptr %5, i64 %9
  %11 = load i8, ptr %10, align 1
  %.not = icmp eq i8 %11, 91
  br i1 %.not, label %27, label %12

12:                                               ; preds = %2
  %13 = add i32 %7, 1
  %14 = getelementptr inbounds nuw i8, ptr %4, i64 12
  %15 = load i32, ptr %14, align 4
  %.not10 = icmp slt i32 %13, %15
  br i1 %.not10, label %17, label %16

16:                                               ; preds = %12
  tail call void @appendStringInfoChar(ptr noundef nonnull %4, i8 noundef signext 44) #15
  br label %27

17:                                               ; preds = %12
  %18 = sext i32 %7 to i64
  %19 = getelementptr inbounds i8, ptr %5, i64 %18
  store i8 44, ptr %19, align 1
  %20 = load ptr, ptr %3, align 8
  %21 = load ptr, ptr %20, align 8
  %22 = getelementptr inbounds nuw i8, ptr %20, i64 8
  %23 = load i32, ptr %22, align 8
  %24 = add i32 %23, 1
  store i32 %24, ptr %22, align 8
  %25 = sext i32 %24 to i64
  %26 = getelementptr inbounds i8, ptr %21, i64 %25
  store i8 0, ptr %26, align 1
  br label %27

27:                                               ; preds = %16, %17, %2
  ret i32 0
}